; Function Attrs: mustprogress nofree norecurse nosync nounwind willreturn memory(read, inaccessiblemem: none) uwtable
define hidden noundef i32 @_ZNK11proto_model27get_num_uninterpreted_sortsEv(ptr nocapture noundef nonnull readonly align 8 dereferenceable(177) %this) unnamed_addr #8 align 2 {
entry:
  %m_user_sort_factory = getelementptr inbounds i8, ptr %this, i64 112
  %0 = load ptr, ptr %m_user_sort_factory, align 8
  %m_nodes.i.i = getelementptr inbounds i8, ptr %0, i64 72
  %1 = load ptr, ptr %m_nodes.i.i, align 8
  %cmp.i.i.i = icmp eq ptr %1, null
  br i1 %cmp.i.i.i, label %_ZNK14simple_factoryIjE13get_num_sortsEv.exit, label %if.end.i.i.i

if.end.i.i.i:                                     ; preds = %entry
  %arrayidx.i.i.i = getelementptr inbounds i8, ptr %1, i64 -4
  %2 = load i32, ptr %arrayidx.i.i.i, align 4
  br label %_ZNK14simple_factoryIjE13get_num_sortsEv.exit

_ZNK14simple_factoryIjE13get_num_sortsEv.exit:    ; preds = %entry, %if.end.i.i.i
  %retval.0.i.i.i = phi i32 [ %2, %if.end.i.i.i ], [ 0, %entry ]
  ret i32 %retval.0.i.i.i
}